target datalayout = "e-m:e-p270:32:32-p271:32:32-p272:64:64-i64:64-i128:128-f80:128-n8:16:32:64-S128"
target triple = "x86_64-pc-linux-gnu"

%struct.GCRef = type { i64 }
%struct.IRType1 = type { i8 }
%union.IRIns = type { %struct.GCRef }
%struct.ASMState = type { [32 x i32], ptr, ptr, ptr, ptr, %struct.x86ModRM, i32, i32, i32, i32, i32, i32, i32, i32, i32, i32, i32, i32, i32, i32, i32, i32, i64, i64, i32, i32, i32, i32, i32, ptr, ptr, ptr, ptr, ptr, ptr, ptr, ptr, ptr, [32 x i16], [250 x i16] }
%struct.x86ModRM = type { i32, i8, i8, i8 }
%struct.anon.0 = type { i32, %struct.IRType1, i8, i8, i8 }

; Function Attrs: alwaysinline nounwind uwtable
define internal i32 @lj_bswap(i32 noundef %0) #3 {
  %2 = alloca i32, align 4
  store i32 %0, ptr %2, align 4, !tbaa !11
  %3 = load i32, ptr %2, align 4, !tbaa !11
  %4 = call i32 @llvm.bswap.i32(i32 %3)
  ret i32 %4
}

; Function Attrs: nounwind uwtable
define internal i32 @ra_allocref(ptr noundef %0, i32 noundef %1, i32 noundef %2) #0 {
  %4 = alloca ptr, align 8
  %5 = alloca i32, align 4
  %6 = alloca i32, align 4
  %7 = alloca ptr, align 8
  %8 = alloca i32, align 4
  %9 = alloca i32, align 4
  store ptr %0, ptr %4, align 8, !tbaa !33
  store i32 %1, ptr %5, align 4, !tbaa !11
  store i32 %2, ptr %6, align 4, !tbaa !11
  call void @llvm.lifetime.start.p0(i64 8, ptr %7) #11
  %10 = load ptr, ptr %4, align 8, !tbaa !33
  %11 = getelementptr inbounds nuw %struct.ASMState, ptr %10, i32 0, i32 3
  %12 = load ptr, ptr %11, align 8, !tbaa !70
  %13 = load i32, ptr %5, align 4, !tbaa !11
  %14 = zext i32 %13 to i64
  %15 = getelementptr inbounds nuw %union.IRIns, ptr %12, i64 %14
  store ptr %15, ptr %7, align 8, !tbaa !37
  call void @llvm.lifetime.start.p0(i64 4, ptr %8) #11
  %16 = load ptr, ptr %4, align 8, !tbaa !33
  %17 = getelementptr inbounds nuw %struct.ASMState, ptr %16, i32 0, i32 6
  %18 = load i32, ptr %17, align 8, !tbaa !84
  %19 = load i32, ptr %6, align 4, !tbaa !11
  %20 = and i32 %18, %19
  store i32 %20, ptr %8, align 4, !tbaa !11
  call void @llvm.lifetime.start.p0(i64 4, ptr %9) #11
  %21 = load i32, ptr %8, align 4, !tbaa !11
  %22 = icmp ne i32 %21, 0
  br i1 %22, label %23, label %115

23:                                               ; preds = %3
  %24 = load ptr, ptr %7, align 8, !tbaa !37
  %25 = getelementptr inbounds nuw %struct.anon.0, ptr %24, i32 0, i32 3
  %26 = load i8, ptr %25, align 2, !tbaa !25
  %27 = zext i8 %26 to i32
  %28 = icmp slt i32 %27, 253
  br i1 %28, label %29, label %69

29:                                               ; preds = %23
  %30 = load ptr, ptr %7, align 8, !tbaa !37
  %31 = getelementptr inbounds nuw %struct.anon.0, ptr %30, i32 0, i32 3
  %32 = load i8, ptr %31, align 2, !tbaa !25
  %33 = zext i8 %32 to i32
  %34 = and i32 %33, 127
  store i32 %34, ptr %9, align 4, !tbaa !11
  %35 = load i32, ptr %8, align 4, !tbaa !11
  %36 = load i32, ptr %9, align 4, !tbaa !11
  %37 = lshr i32 %35, %36
  %38 = and i32 %37, 1
  %39 = icmp ne i32 %38, 0
  br i1 %39, label %40, label %41

40:                                               ; preds = %29
  br label %120

41:                                               ; preds = %29
  %42 = load i32, ptr %6, align 4, !tbaa !11
  %43 = load i32, ptr %9, align 4, !tbaa !11
  %44 = lshr i32 %42, %43
  %45 = and i32 %44, 1
  %46 = icmp ne i32 %45, 0
  br i1 %46, label %47, label %68

47:                                               ; preds = %41
  %48 = load ptr, ptr %4, align 8, !tbaa !33
  %49 = getelementptr inbounds nuw %struct.ASMState, ptr %48, i32 0, i32 0
  %50 = load i32, ptr %9, align 4, !tbaa !11
  %51 = zext i32 %50 to i64
  %52 = getelementptr inbounds nuw [32 x i32], ptr %49, i64 0, i64 %51
  %53 = load i32, ptr %52, align 4, !tbaa !11
  %54 = trunc i32 %53 to i16
  %55 = zext i16 %54 to i32
  %56 = icmp sle i32 %55, 32768
  br i1 %56, label %57, label %68

57:                                               ; preds = %47
  %58 = load ptr, ptr %4, align 8, !tbaa !33
  %59 = load ptr, ptr %4, align 8, !tbaa !33
  %60 = getelementptr inbounds nuw %struct.ASMState, ptr %59, i32 0, i32 0
  %61 = load i32, ptr %9, align 4, !tbaa !11
  %62 = zext i32 %61 to i64
  %63 = getelementptr inbounds nuw [32 x i32], ptr %60, i64 0, i64 %62
  %64 = load i32, ptr %63, align 4, !tbaa !11
  %65 = trunc i32 %64 to i16
  %66 = zext i16 %65 to i32
  %67 = call i32 @ra_rematk(ptr noundef %58, i32 noundef %66)
  br label %120

68:                                               ; preds = %47, %41
  br label %69

69:                                               ; preds = %68, %23
  %70 = load i32, ptr %5, align 4, !tbaa !11
  %71 = load ptr, ptr %4, align 8, !tbaa !33
  %72 = getelementptr inbounds nuw %struct.ASMState, ptr %71, i32 0, i32 26
  %73 = load i32, ptr %72, align 8, !tbaa !58
  %74 = icmp ult i32 %70, %73
  br i1 %74, label %75, label %101

75:                                               ; preds = %69
  %76 = load ptr, ptr %7, align 8, !tbaa !37
  %77 = getelementptr inbounds nuw %struct.anon.0, ptr %76, i32 0, i32 1
  %78 = getelementptr inbounds nuw %struct.IRType1, ptr %77, i32 0, i32 0
  %79 = load i8, ptr %78, align 4, !tbaa !25
  %80 = zext i8 %79 to i32
  %81 = and i32 %80, 64
  %82 = icmp ne i32 %81, 0
  br i1 %82, label %101, label %83

83:                                               ; preds = %75
  %84 = load i32, ptr %8, align 4, !tbaa !11
  %85 = load ptr, ptr %4, align 8, !tbaa !33
  %86 = getelementptr inbounds nuw %struct.ASMState, ptr %85, i32 0, i32 7
  %87 = load i32, ptr %86, align 4, !tbaa !106
  %88 = xor i32 %87, -1
  %89 = and i32 %84, %88
  %90 = icmp ne i32 %89, 0
  br i1 %90, label %91, label %98

91:                                               ; preds = %83
  %92 = load ptr, ptr %4, align 8, !tbaa !33
  %93 = getelementptr inbounds nuw %struct.ASMState, ptr %92, i32 0, i32 7
  %94 = load i32, ptr %93, align 4, !tbaa !106
  %95 = xor i32 %94, -1
  %96 = load i32, ptr %8, align 4, !tbaa !11
  %97 = and i32 %96, %95
  store i32 %97, ptr %8, align 4, !tbaa !11
  br label %98

98:                                               ; preds = %91, %83
  %99 = load i32, ptr %8, align 4, !tbaa !11
  %100 = call i32 @llvm.cttz.i32(i32 %99, i1 true)
  store i32 %100, ptr %9, align 4, !tbaa !11
  br label %114

101:                                              ; preds = %75, %69
  %102 = load i32, ptr %8, align 4, !tbaa !11
  %103 = and i32 %102, 61496
  %104 = icmp ne i32 %103, 0
  br i1 %104, label %105, label %108

105:                                              ; preds = %101
  %106 = load i32, ptr %8, align 4, !tbaa !11
  %107 = and i32 %106, 61496
  store i32 %107, ptr %8, align 4, !tbaa !11
  br label %108

108:                                              ; preds = %105, %101
  %109 = load i32, ptr %8, align 4, !tbaa !11
  %110 = call i32 @lj_bswap(i32 noundef %109)
  %111 = call i32 @llvm.ctlz.i32(i32 %110, i1 true)
  %112 = xor i32 %111, 31
  %113 = xor i32 %112, 24
  store i32 %113, ptr %9, align 4, !tbaa !11
  br label %114

114:                                              ; preds = %108, %98
  br label %119

115:                                              ; preds = %3
  %116 = load ptr, ptr %4, align 8, !tbaa !33
  %117 = load i32, ptr %6, align 4, !tbaa !11
  %118 = call i32 @ra_evict(ptr noundef %116, i32 noundef %117)
  store i32 %118, ptr %9, align 4, !tbaa !11
  br label %119

119:                                              ; preds = %115, %114
  br label %120

120:                                              ; preds = %119, %57, %40
  %121 = load i32, ptr %9, align 4, !tbaa !11
  %122 = trunc i32 %121 to i8
  %123 = load ptr, ptr %7, align 8, !tbaa !37
  %124 = getelementptr inbounds nuw %struct.anon.0, ptr %123, i32 0, i32 3
  store i8 %122, ptr %124, align 2, !tbaa !25
  %125 = load i32, ptr %9, align 4, !tbaa !11
  %126 = shl i32 1, %125
  %127 = xor i32 %126, -1
  %128 = load ptr, ptr %4, align 8, !tbaa !33
  %129 = getelementptr inbounds nuw %struct.ASMState, ptr %128, i32 0, i32 6
  %130 = load i32, ptr %129, align 8, !tbaa !84
  %131 = and i32 %130, %127
  store i32 %131, ptr %129, align 8, !tbaa !84
  %132 = load i32, ptr %9, align 4, !tbaa !11
  %133 = shl i32 1, %132
  %134 = xor i32 %133, -1
  %135 = load ptr, ptr %4, align 8, !tbaa !33
  %136 = getelementptr inbounds nuw %struct.ASMState, ptr %135, i32 0, i32 8
  %137 = load i32, ptr %136, align 8, !tbaa !140
  %138 = and i32 %137, %134
  store i32 %138, ptr %136, align 8, !tbaa !140
  %139 = load i32, ptr %5, align 4, !tbaa !11
  %140 = load i32, ptr %5, align 4, !tbaa !11
  %141 = shl i32 %140, 16
  %142 = add i32 %139, %141
  %143 = load ptr, ptr %7, align 8, !tbaa !37
  %144 = getelementptr inbounds nuw %struct.anon.0, ptr %143, i32 0, i32 1
  %145 = getelementptr inbounds nuw %struct.IRType1, ptr %144, i32 0, i32 0
  %146 = load i8, ptr %145, align 4, !tbaa !25
  %147 = zext i8 %146 to i32
  %148 = and i32 %147, 64
  %149 = mul i32 %148, 65536
  %150 = add i32 %142, %149
  %151 = load ptr, ptr %4, align 8, !tbaa !33
  %152 = getelementptr inbounds nuw %struct.ASMState, ptr %151, i32 0, i32 0
  %153 = load i32, ptr %9, align 4, !tbaa !11
  %154 = zext i32 %153 to i64
  %155 = getelementptr inbounds nuw [32 x i32], ptr %152, i64 0, i64 %154
  store i32 %150, ptr %155, align 4, !tbaa !11
  %156 = load i32, ptr %9, align 4, !tbaa !11
  call void @llvm.lifetime.end.p0(i64 4, ptr %9) #11
  call void @llvm.lifetime.end.p0(i64 4, ptr %8) #11
  call void @llvm.lifetime.end.p0(i64 8, ptr %7) #11
  ret i32 %156
}