; Function Attrs: nounwind uwtable
define internal fastcc range(i32 0, 256) i32 @ra_allocref(ptr noundef nonnull captures(none) %0, i32 noundef %1, i32 noundef %2) unnamed_addr #0 {
  %4 = getelementptr inbounds nuw i8, ptr %0, i64 144
  %5 = load ptr, ptr %4, align 8, !tbaa !68
  %6 = zext i32 %1 to i64
  %7 = getelementptr inbounds nuw %union.IRIns, ptr %5, i64 %6
  %8 = getelementptr inbounds nuw i8, ptr %0, i64 168
  %9 = load i32, ptr %8, align 8, !tbaa !78
  %10 = and i32 %9, %2
  %.not = icmp eq i32 %10, 0
  br i1 %.not, label %49, label %11

11:                                               ; preds = %3
  %12 = getelementptr inbounds nuw i8, ptr %7, i64 6
  %13 = load i8, ptr %12, align 2, !tbaa !20
  %14 = icmp ult i8 %13, -3
  br i1 %14, label %15, label %30

15:                                               ; preds = %11
  %16 = and i8 %13, 127
  %17 = zext nneg i8 %16 to i32
  %18 = shl nuw i32 1, %17
  %19 = and i32 %18, %10
  %.not46 = icmp eq i32 %19, 0
  br i1 %.not46, label %20, label %51

20:                                               ; preds = %15
  %21 = and i32 %18, %2
  %.not47 = icmp eq i32 %21, 0
  br i1 %.not47, label %30, label %22

22:                                               ; preds = %20
  %23 = zext nneg i8 %16 to i64
  %24 = getelementptr inbounds nuw [32 x i32], ptr %0, i64 0, i64 %23
  %25 = load i32, ptr %24, align 4, !tbaa !21
  %26 = and i32 %25, 65535
  %27 = icmp samesign ult i32 %26, 32769
  br i1 %27, label %28, label %30

28:                                               ; preds = %22
  %29 = tail call fastcc i32 @ra_rematk(ptr noundef %0, i32 noundef %26)
  br label %51

30:                                               ; preds = %20, %22, %11
  %31 = getelementptr inbounds nuw i8, ptr %0, i64 256
  %32 = load i32, ptr %31, align 8, !tbaa !51
  %33 = icmp ult i32 %1, %32
  br i1 %33, label %34, label %44

34:                                               ; preds = %30
  %35 = getelementptr inbounds nuw i8, ptr %7, i64 4
  %36 = load i8, ptr %35, align 4, !tbaa !20
  %37 = and i8 %36, 64
  %.not48 = icmp eq i8 %37, 0
  br i1 %.not48, label %38, label %44

38:                                               ; preds = %34
  %39 = getelementptr inbounds nuw i8, ptr %0, i64 172
  %40 = load i32, ptr %39, align 4, !tbaa !79
  %41 = xor i32 %40, -1
  %42 = and i32 %10, %41
  %.not49 = icmp eq i32 %42, 0
  %spec.select = select i1 %.not49, i32 %10, i32 %42
  %43 = tail call range(i32 0, 33) i32 @llvm.cttz.i32(i32 %spec.select, i1 true)
  br label %51

44:                                               ; preds = %34, %30
  %45 = and i32 %10, 61496
  %.not50 = icmp eq i32 %45, 0
  %spec.select51 = select i1 %.not50, i32 %10, i32 %45
  %46 = tail call i32 @llvm.bswap.i32(i32 range(i32 1, 0) %spec.select51)
  %47 = tail call range(i32 0, 33) i32 @llvm.ctlz.i32(i32 %46, i1 true)
  %48 = xor i32 %47, 7
  br label %51

49:                                               ; preds = %3
  %50 = tail call fastcc i32 @ra_evict(ptr noundef %0, i32 noundef %2)
  br label %51

51:                                               ; preds = %49, %44, %38, %15, %28
  %.0 = phi i32 [ %17, %15 ], [ %17, %28 ], [ %48, %44 ], [ %43, %38 ], [ %50, %49 ]
  %52 = trunc nuw i32 %.0 to i8
  %53 = getelementptr inbounds nuw i8, ptr %7, i64 6
  store i8 %52, ptr %53, align 2, !tbaa !20
  %54 = shl nuw i32 1, %.0
  %55 = xor i32 %54, -1
  %56 = load i32, ptr %8, align 8, !tbaa !78
  %57 = and i32 %56, %55
  store i32 %57, ptr %8, align 8, !tbaa !78
  %58 = getelementptr inbounds nuw i8, ptr %0, i64 176
  %59 = load i32, ptr %58, align 8, !tbaa !80
  %60 = and i32 %59, %55
  store i32 %60, ptr %58, align 8, !tbaa !80
  %61 = mul i32 %1, 65537
  %62 = getelementptr inbounds nuw i8, ptr %7, i64 4
  %63 = load i8, ptr %62, align 4, !tbaa !20
  %64 = and i8 %63, 64
  %65 = zext nneg i8 %64 to i32
  %66 = shl nuw nsw i32 %65, 16
  %67 = add i32 %66, %61
  %68 = zext nneg i32 %.0 to i64
  %69 = getelementptr inbounds nuw [32 x i32], ptr %0, i64 0, i64 %68
  store i32 %67, ptr %69, align 4, !tbaa !21
  ret i32 %.0
}